target datalayout = "e-m:e-p270:32:32-p271:32:32-p272:64:64-i64:64-i128:128-f80:128-n8:16:32:64-S128"
target triple = "x86_64-pc-linux-gnu"

@.str.44 = private unnamed_addr constant [11 x i8] c"Attributes\00", align 1
@hf_afp_extattr_bitmap = internal global i32 0, align 4
@hf_afp_extattr_name = internal global i32 0, align 4
@hf_afp_extattr_reply_size = internal global i32 0, align 4
@ett_afp_extattr_bitmap = internal global i32 0, align 4
@ett_afp_extattr_names = internal global i32 0, align 4
@decode_attr_bitmap.bitmaps = internal constant [4 x ptr] [ptr @hf_afp_extattr_bitmap_NoFollow, ptr @hf_afp_extattr_bitmap_Create, ptr @hf_afp_extattr_bitmap_Replace, ptr null], align 16

; Function Attrs: null_pointer_is_valid sspstrong uwtable
define internal i32 @decode_attr_bitmap(ptr noundef %0, ptr noundef %1, i32 noundef %2) #1 {
  %4 = alloca ptr, align 8
  %5 = alloca ptr, align 8
  %6 = alloca i32, align 4
  store ptr %0, ptr %4, align 8
  store ptr %1, ptr %5, align 8
  store i32 %2, ptr %6, align 4
  %7 = load ptr, ptr %4, align 8
  %8 = load ptr, ptr %5, align 8
  %9 = load i32, ptr %6, align 4
  %10 = load i32, ptr @hf_afp_extattr_bitmap, align 4
  %11 = load i32, ptr @ett_afp_extattr_bitmap, align 4
  %12 = call ptr @proto_tree_add_bitmask(ptr noundef %7, ptr noundef %8, i32 noundef %9, i32 noundef %10, i32 noundef %11, ptr noundef @decode_attr_bitmap.bitmaps, i32 noundef 0)
  %13 = load i32, ptr %6, align 4
  %14 = add i32 %13, 2
  store i32 %14, ptr %6, align 4
  %15 = load i32, ptr %6, align 4
  ret i32 %15
}

; Function Attrs: null_pointer_is_valid sspstrong uwtable
define internal i32 @dissect_reply_afp_list_ext_attrs(ptr noundef %0, ptr noundef %1, ptr noundef %2, i32 noundef %3) #1 {
  %5 = alloca i32, align 4
  %6 = alloca ptr, align 8
  %7 = alloca ptr, align 8
  %8 = alloca ptr, align 8
  %9 = alloca i32, align 4
  %10 = alloca ptr, align 8
  %11 = alloca i32, align 4
  %12 = alloca i32, align 4
  %13 = alloca i32, align 4
  %14 = alloca i32, align 4
  store ptr %0, ptr %6, align 8
  store ptr %1, ptr %7, align 8
  store ptr %2, ptr %8, align 8
  store i32 %3, ptr %9, align 4
  call void @llvm.lifetime.start.p0(i64 8, ptr %10) #8
  call void @llvm.lifetime.start.p0(i64 4, ptr %11) #8
  store i32 0, ptr %11, align 4
  call void @llvm.lifetime.start.p0(i64 4, ptr %12) #8
  call void @llvm.lifetime.start.p0(i64 4, ptr %13) #8
  %15 = load ptr, ptr %8, align 8
  %16 = load ptr, ptr %6, align 8
  %17 = load i32, ptr %9, align 4
  %18 = call i32 @decode_attr_bitmap(ptr noundef %15, ptr noundef %16, i32 noundef %17)
  store i32 %18, ptr %9, align 4
  %19 = load ptr, ptr %8, align 8
  %20 = load i32, ptr @hf_afp_extattr_reply_size, align 4
  %21 = load ptr, ptr %6, align 8
  %22 = load i32, ptr %9, align 4
  %23 = call ptr @proto_tree_add_item_ret_uint(ptr noundef %19, i32 noundef %20, ptr noundef %21, i32 noundef %22, i32 noundef 4, i32 noundef 0, ptr noundef %11)
  %24 = load i32, ptr %9, align 4
  %25 = add i32 %24, 4
  store i32 %25, ptr %9, align 4
  %26 = load i32, ptr %11, align 4
  %27 = icmp ugt i32 %26, 2147483647
  br i1 %27, label %28, label %30

28:                                               ; preds = %4
  %29 = load i32, ptr %9, align 4
  store i32 %29, ptr %5, align 4
  store i32 1, ptr %14, align 4
  br label %67

30:                                               ; preds = %4
  %31 = load ptr, ptr %6, align 8
  %32 = load i32, ptr %9, align 4
  %33 = call i32 @tvb_reported_length_remaining(ptr noundef %31, i32 noundef %32)
  store i32 %33, ptr %13, align 4
  %34 = load i32, ptr %13, align 4
  %35 = load i32, ptr %11, align 4
  %36 = icmp slt i32 %34, %35
  br i1 %36, label %37, label %39

37:                                               ; preds = %30
  %38 = load i32, ptr %9, align 4
  store i32 %38, ptr %5, align 4
  store i32 1, ptr %14, align 4
  br label %67

39:                                               ; preds = %30
  %40 = load ptr, ptr %8, align 8
  %41 = load ptr, ptr %6, align 8
  %42 = load i32, ptr %9, align 4
  %43 = load i32, ptr %13, align 4
  %44 = load i32, ptr @ett_afp_extattr_names, align 4
  %45 = call ptr @proto_tree_add_subtree(ptr noundef %40, ptr noundef %41, i32 noundef %42, i32 noundef %43, i32 noundef %44, ptr noundef null, ptr noundef @.str.44)
  store ptr %45, ptr %10, align 8
  br label %46

46:                                               ; preds = %49, %39
  %47 = load i32, ptr %13, align 4
  %48 = icmp sgt i32 %47, 0
  br i1 %48, label %49, label %65

49:                                               ; preds = %46
  %50 = load ptr, ptr %6, align 8
  %51 = load i32, ptr %9, align 4
  %52 = call i32 @tvb_strsize(ptr noundef %50, i32 noundef %51)
  store i32 %52, ptr %12, align 4
  %53 = load ptr, ptr %10, align 8
  %54 = load i32, ptr @hf_afp_extattr_name, align 4
  %55 = load ptr, ptr %6, align 8
  %56 = load i32, ptr %9, align 4
  %57 = load i32, ptr %12, align 4
  %58 = call ptr @proto_tree_add_item(ptr noundef %53, i32 noundef %54, ptr noundef %55, i32 noundef %56, i32 noundef %57, i32 noundef 2)
  %59 = load i32, ptr %12, align 4
  %60 = load i32, ptr %9, align 4
  %61 = add i32 %60, %59
  store i32 %61, ptr %9, align 4
  %62 = load i32, ptr %12, align 4
  %63 = load i32, ptr %13, align 4
  %64 = sub i32 %63, %62
  store i32 %64, ptr %13, align 4
  br label %46, !llvm.loop !14

65:                                               ; preds = %46
  %66 = load i32, ptr %9, align 4
  store i32 %66, ptr %5, align 4
  store i32 1, ptr %14, align 4
  br label %67

67:                                               ; preds = %65, %37, %28
  call void @llvm.lifetime.end.p0(i64 4, ptr %13) #8
  call void @llvm.lifetime.end.p0(i64 4, ptr %12) #8
  call void @llvm.lifetime.end.p0(i64 4, ptr %11) #8
  call void @llvm.lifetime.end.p0(i64 8, ptr %10) #8
  %68 = load i32, ptr %5, align 4
  ret i32 %68
}