; Function Attrs: null_pointer_is_valid sspstrong uwtable
define internal fastcc noundef i32 @dissect_reply_afp_list_ext_attrs(ptr noundef %0, ptr noundef %1) unnamed_addr #1 {
  %3 = alloca i32, align 4
  call void @llvm.lifetime.start.p0(i64 4, ptr nonnull %3) #8
  store i32 0, ptr %3, align 4
  %4 = load i32, ptr @hf_afp_extattr_bitmap, align 4
  %5 = load i32, ptr @ett_afp_extattr_bitmap, align 4
  %6 = tail call ptr @proto_tree_add_bitmask(ptr noundef %1, ptr noundef %0, i32 noundef 0, i32 noundef %4, i32 noundef %5, ptr noundef nonnull @decode_attr_bitmap.bitmaps, i32 noundef 0)
  %7 = load i32, ptr @hf_afp_extattr_reply_size, align 4
  %8 = call ptr @proto_tree_add_item_ret_uint(ptr noundef %1, i32 noundef %7, ptr noundef %0, i32 noundef 2, i32 noundef 4, i32 noundef 0, ptr noundef nonnull %3)
  %9 = load i32, ptr %3, align 4
  %10 = icmp slt i32 %9, 0
  br i1 %10, label %.loopexit, label %11

11:                                               ; preds = %2
  %12 = call i32 @tvb_reported_length_remaining(ptr noundef %0, i32 noundef 6)
  %13 = load i32, ptr %3, align 4
  %14 = icmp slt i32 %12, %13
  br i1 %14, label %.loopexit, label %15

15:                                               ; preds = %11
  %16 = load i32, ptr @ett_afp_extattr_names, align 4
  %17 = call ptr @proto_tree_add_subtree(ptr noundef %1, ptr noundef %0, i32 noundef 6, i32 noundef %12, i32 noundef %16, ptr noundef null, ptr noundef nonnull @.str.44)
  %18 = icmp sgt i32 %12, 0
  br i1 %18, label %.lr.ph, label %.loopexit

.lr.ph:                                           ; preds = %15, %.lr.ph
  %.02 = phi i32 [ %23, %.lr.ph ], [ %12, %15 ]
  %.0291 = phi i32 [ %22, %.lr.ph ], [ 6, %15 ]
  %19 = call i32 @tvb_strsize(ptr noundef %0, i32 noundef %.0291)
  %20 = load i32, ptr @hf_afp_extattr_name, align 4
  %21 = call ptr @proto_tree_add_item(ptr noundef %17, i32 noundef %20, ptr noundef %0, i32 noundef %.0291, i32 noundef %19, i32 noundef 2)
  %22 = add i32 %19, %.0291
  %23 = sub i32 %.02, %19
  %24 = icmp sgt i32 %23, 0
  br i1 %24, label %.lr.ph, label %.loopexit, !llvm.loop !14

.loopexit:                                        ; preds = %.lr.ph, %15, %11, %2
  %.028 = phi i32 [ 6, %2 ], [ 6, %11 ], [ 6, %15 ], [ %22, %.lr.ph ]
  call void @llvm.lifetime.end.p0(i64 4, ptr nonnull %3) #8
  ret i32 %.028
}